; Function Attrs: mustprogress nofree norecurse nosync nounwind willreturn memory(argmem: readwrite) uwtable
define void @_ZN6icu_756number12SimpleNumber7setSignE17USimpleNumberSignR10UErrorCode(ptr nocapture noundef nonnull align 8 dereferenceable(12) %this, i32 noundef %sign, ptr nocapture noundef nonnull align 4 dereferenceable(4) %status) local_unnamed_addr #8 align 2 {
entry:
  %0 = load i32, ptr %status, align 4
  %cmp.i = icmp slt i32 %0, 1
  br i1 %cmp.i, label %if.end, label %return

if.end:                                           ; preds = %entry
  %1 = load ptr, ptr %this, align 8
  %cmp = icmp eq ptr %1, null
  br i1 %cmp, label %if.then2, label %if.end3

if.then2:                                         ; preds = %if.end
  store i32 27, ptr %status, align 4
  br label %return

if.end3:                                          ; preds = %if.end
  %fSign = getelementptr inbounds i8, ptr %this, i64 8
  store i32 %sign, ptr %fSign, align 8
  br label %return

return:                                           ; preds = %entry, %if.end3, %if.then2
  ret void
}